; Function Attrs: mustprogress nounwind uwtable
define dso_local void @_ZN4Type14doFinalizationEv() local_unnamed_addr #3 align 2 personality ptr @__gxx_personality_v0 {
  %1 = load ptr, ptr @_ZL8AllTypes, align 8
  %2 = load ptr, ptr getelementptr inbounds (%"class.std::vector", ptr @_ZL8AllTypes, i64 0, i32 0, i32 0, i32 0, i32 1), align 8
  %.not29 = icmp eq ptr %1, %2
  br i1 %.not29, label %_ZNSt6vectorIP4TypeSaIS1_EE5clearEv.exit, label %.lr.ph

.lr.ph:                                           ; preds = %0, %25
  %3 = phi ptr [ %26, %25 ], [ %2, %0 ]
  %.sroa.021.030 = phi ptr [ %27, %25 ], [ %1, %0 ]
  %4 = load ptr, ptr %.sroa.021.030, align 8
  %5 = icmp eq ptr %4, null
  br i1 %5, label %25, label %6

6:                                                ; preds = %.lr.ph
  %7 = getelementptr inbounds i8, ptr %4, i64 112
  %8 = load ptr, ptr %7, align 8
  %.not.i.i.i.i = icmp eq ptr %8, null
  br i1 %.not.i.i.i.i, label %_ZNSt6vectorIiSaIiEED2Ev.exit.i, label %9

9:                                                ; preds = %6
  tail call void @_ZdlPv(ptr noundef nonnull %8) #21
  br label %_ZNSt6vectorIiSaIiEED2Ev.exit.i

_ZNSt6vectorIiSaIiEED2Ev.exit.i:                  ; preds = %9, %6
  %10 = getelementptr inbounds i8, ptr %4, i64 88
  %11 = load ptr, ptr %10, align 8
  %12 = getelementptr inbounds i8, ptr %4, i64 96
  %13 = load ptr, ptr %12, align 8
  %.not4.i.i.i.i.i = icmp eq ptr %11, %13
  br i1 %.not4.i.i.i.i.i, label %_ZSt8_DestroyIP12CVQualifiersS0_EvT_S2_RSaIT0_E.exit.i.i, label %.lr.ph.i.i.i.i.i

.lr.ph.i.i.i.i.i:                                 ; preds = %_ZNSt6vectorIiSaIiEED2Ev.exit.i, %.lr.ph.i.i.i.i.i
  %.05.i.i.i.i.i = phi ptr [ %16, %.lr.ph.i.i.i.i.i ], [ %11, %_ZNSt6vectorIiSaIiEED2Ev.exit.i ]
  %14 = load ptr, ptr %.05.i.i.i.i.i, align 8
  %15 = load ptr, ptr %14, align 8
  tail call void %15(ptr noundef nonnull align 8 dereferenceable(96) %.05.i.i.i.i.i) #23
  %16 = getelementptr inbounds i8, ptr %.05.i.i.i.i.i, i64 96
  %.not.i.i.i.i.i = icmp eq ptr %16, %13
  br i1 %.not.i.i.i.i.i, label %_ZSt8_DestroyIP12CVQualifiersS0_EvT_S2_RSaIT0_E.exitthread-pre-split.i.i, label %.lr.ph.i.i.i.i.i, !llvm.loop !9

_ZSt8_DestroyIP12CVQualifiersS0_EvT_S2_RSaIT0_E.exitthread-pre-split.i.i: ; preds = %.lr.ph.i.i.i.i.i
  %.pr.i.i = load ptr, ptr %10, align 8
  br label %_ZSt8_DestroyIP12CVQualifiersS0_EvT_S2_RSaIT0_E.exit.i.i

_ZSt8_DestroyIP12CVQualifiersS0_EvT_S2_RSaIT0_E.exit.i.i: ; preds = %_ZSt8_DestroyIP12CVQualifiersS0_EvT_S2_RSaIT0_E.exitthread-pre-split.i.i, %_ZNSt6vectorIiSaIiEED2Ev.exit.i
  %17 = phi ptr [ %.pr.i.i, %_ZSt8_DestroyIP12CVQualifiersS0_EvT_S2_RSaIT0_E.exitthread-pre-split.i.i ], [ %11, %_ZNSt6vectorIiSaIiEED2Ev.exit.i ]
  %.not.i.i.i1.i = icmp eq ptr %17, null
  br i1 %.not.i.i.i1.i, label %_ZNSt6vectorI12CVQualifiersSaIS0_EED2Ev.exit.i, label %18

18:                                               ; preds = %_ZSt8_DestroyIP12CVQualifiersS0_EvT_S2_RSaIT0_E.exit.i.i
  tail call void @_ZdlPv(ptr noundef nonnull %17) #21
  br label %_ZNSt6vectorI12CVQualifiersSaIS0_EED2Ev.exit.i

_ZNSt6vectorI12CVQualifiersSaIS0_EED2Ev.exit.i:   ; preds = %18, %_ZSt8_DestroyIP12CVQualifiersS0_EvT_S2_RSaIT0_E.exit.i.i
  %19 = getelementptr inbounds i8, ptr %4, i64 48
  %20 = load ptr, ptr %19, align 8
  %.not.i.i.i2.i = icmp eq ptr %20, null
  br i1 %.not.i.i.i2.i, label %_ZNSt6vectorIPK4TypeSaIS2_EED2Ev.exit.i, label %21

21:                                               ; preds = %_ZNSt6vectorI12CVQualifiersSaIS0_EED2Ev.exit.i
  tail call void @_ZdlPv(ptr noundef nonnull %20) #21
  br label %_ZNSt6vectorIPK4TypeSaIS2_EED2Ev.exit.i

_ZNSt6vectorIPK4TypeSaIS2_EED2Ev.exit.i:          ; preds = %21, %_ZNSt6vectorI12CVQualifiersSaIS0_EED2Ev.exit.i
  %22 = getelementptr inbounds i8, ptr %4, i64 24
  %23 = load ptr, ptr %22, align 8
  %.not.i.i.i3.i = icmp eq ptr %23, null
  br i1 %.not.i.i.i3.i, label %_ZN4TypeD2Ev.exit, label %24

24:                                               ; preds = %_ZNSt6vectorIPK4TypeSaIS2_EED2Ev.exit.i
  tail call void @_ZdlPv(ptr noundef nonnull %23) #21
  br label %_ZN4TypeD2Ev.exit

_ZN4TypeD2Ev.exit:                                ; preds = %_ZNSt6vectorIPK4TypeSaIS2_EED2Ev.exit.i, %24
  tail call void @_ZdlPv(ptr noundef nonnull %4) #21
  %.pre = load ptr, ptr getelementptr inbounds (%"class.std::vector", ptr @_ZL8AllTypes, i64 0, i32 0, i32 0, i32 0, i32 1), align 8
  br label %25

25:                                               ; preds = %.lr.ph, %_ZN4TypeD2Ev.exit
  %26 = phi ptr [ %3, %.lr.ph ], [ %.pre, %_ZN4TypeD2Ev.exit ]
  %27 = getelementptr inbounds i8, ptr %.sroa.021.030, i64 8
  %.not = icmp eq ptr %27, %26
  br i1 %.not, label %._crit_edge, label %.lr.ph, !llvm.loop !54

._crit_edge:                                      ; preds = %25
  %.pre38 = load ptr, ptr @_ZL8AllTypes, align 8
  %.not.i.i = icmp eq ptr %26, %.pre38
  br i1 %.not.i.i, label %_ZNSt6vectorIP4TypeSaIS1_EE5clearEv.exit, label %28

28:                                               ; preds = %._crit_edge
  store ptr %.pre38, ptr getelementptr inbounds (%"class.std::vector", ptr @_ZL8AllTypes, i64 0, i32 0, i32 0, i32 0, i32 1), align 8
  br label %_ZNSt6vectorIP4TypeSaIS1_EE5clearEv.exit

_ZNSt6vectorIP4TypeSaIS1_EE5clearEv.exit:         ; preds = %0, %._crit_edge, %28
  %29 = load ptr, ptr @_ZL13derived_types, align 8
  %30 = load ptr, ptr getelementptr inbounds (%"class.std::vector", ptr @_ZL13derived_types, i64 0, i32 0, i32 0, i32 0, i32 1), align 8
  %.not2731 = icmp eq ptr %29, %30
  br i1 %.not2731, label %_ZNSt6vectorIP4TypeSaIS1_EE5clearEv.exit19, label %.lr.ph33

.lr.ph33:                                         ; preds = %_ZNSt6vectorIP4TypeSaIS1_EE5clearEv.exit, %53
  %31 = phi ptr [ %54, %53 ], [ %30, %_ZNSt6vectorIP4TypeSaIS1_EE5clearEv.exit ]
  %.sroa.021.132 = phi ptr [ %55, %53 ], [ %29, %_ZNSt6vectorIP4TypeSaIS1_EE5clearEv.exit ]
  %32 = load ptr, ptr %.sroa.021.132, align 8
  %33 = icmp eq ptr %32, null
  br i1 %33, label %53, label %34

34:                                               ; preds = %.lr.ph33
  %35 = getelementptr inbounds i8, ptr %32, i64 112
  %36 = load ptr, ptr %35, align 8
  %.not.i.i.i.i3 = icmp eq ptr %36, null
  br i1 %.not.i.i.i.i3, label %_ZNSt6vectorIiSaIiEED2Ev.exit.i4, label %37

37:                                               ; preds = %34
  tail call void @_ZdlPv(ptr noundef nonnull %36) #21
  br label %_ZNSt6vectorIiSaIiEED2Ev.exit.i4

_ZNSt6vectorIiSaIiEED2Ev.exit.i4:                 ; preds = %37, %34
  %38 = getelementptr inbounds i8, ptr %32, i64 88
  %39 = load ptr, ptr %38, align 8
  %40 = getelementptr inbounds i8, ptr %32, i64 96
  %41 = load ptr, ptr %40, align 8
  %.not4.i.i.i.i.i5 = icmp eq ptr %39, %41
  br i1 %.not4.i.i.i.i.i5, label %_ZSt8_DestroyIP12CVQualifiersS0_EvT_S2_RSaIT0_E.exit.i.i11, label %.lr.ph.i.i.i.i.i6

.lr.ph.i.i.i.i.i6:                                ; preds = %_ZNSt6vectorIiSaIiEED2Ev.exit.i4, %.lr.ph.i.i.i.i.i6
  %.05.i.i.i.i.i7 = phi ptr [ %44, %.lr.ph.i.i.i.i.i6 ], [ %39, %_ZNSt6vectorIiSaIiEED2Ev.exit.i4 ]
  %42 = load ptr, ptr %.05.i.i.i.i.i7, align 8
  %43 = load ptr, ptr %42, align 8
  tail call void %43(ptr noundef nonnull align 8 dereferenceable(96) %.05.i.i.i.i.i7) #23
  %44 = getelementptr inbounds i8, ptr %.05.i.i.i.i.i7, i64 96
  %.not.i.i.i.i.i8 = icmp eq ptr %44, %41
  br i1 %.not.i.i.i.i.i8, label %_ZSt8_DestroyIP12CVQualifiersS0_EvT_S2_RSaIT0_E.exitthread-pre-split.i.i9, label %.lr.ph.i.i.i.i.i6, !llvm.loop !9

_ZSt8_DestroyIP12CVQualifiersS0_EvT_S2_RSaIT0_E.exitthread-pre-split.i.i9: ; preds = %.lr.ph.i.i.i.i.i6
  %.pr.i.i10 = load ptr, ptr %38, align 8
  br label %_ZSt8_DestroyIP12CVQualifiersS0_EvT_S2_RSaIT0_E.exit.i.i11

_ZSt8_DestroyIP12CVQualifiersS0_EvT_S2_RSaIT0_E.exit.i.i11: ; preds = %_ZSt8_DestroyIP12CVQualifiersS0_EvT_S2_RSaIT0_E.exitthread-pre-split.i.i9, %_ZNSt6vectorIiSaIiEED2Ev.exit.i4
  %45 = phi ptr [ %.pr.i.i10, %_ZSt8_DestroyIP12CVQualifiersS0_EvT_S2_RSaIT0_E.exitthread-pre-split.i.i9 ], [ %39, %_ZNSt6vectorIiSaIiEED2Ev.exit.i4 ]
  %.not.i.i.i1.i12 = icmp eq ptr %45, null
  br i1 %.not.i.i.i1.i12, label %_ZNSt6vectorI12CVQualifiersSaIS0_EED2Ev.exit.i13, label %46

46:                                               ; preds = %_ZSt8_DestroyIP12CVQualifiersS0_EvT_S2_RSaIT0_E.exit.i.i11
  tail call void @_ZdlPv(ptr noundef nonnull %45) #21
  br label %_ZNSt6vectorI12CVQualifiersSaIS0_EED2Ev.exit.i13

_ZNSt6vectorI12CVQualifiersSaIS0_EED2Ev.exit.i13: ; preds = %46, %_ZSt8_DestroyIP12CVQualifiersS0_EvT_S2_RSaIT0_E.exit.i.i11
  %47 = getelementptr inbounds i8, ptr %32, i64 48
  %48 = load ptr, ptr %47, align 8
  %.not.i.i.i2.i14 = icmp eq ptr %48, null
  br i1 %.not.i.i.i2.i14, label %_ZNSt6vectorIPK4TypeSaIS2_EED2Ev.exit.i15, label %49

49:                                               ; preds = %_ZNSt6vectorI12CVQualifiersSaIS0_EED2Ev.exit.i13
  tail call void @_ZdlPv(ptr noundef nonnull %48) #21
  br label %_ZNSt6vectorIPK4TypeSaIS2_EED2Ev.exit.i15

_ZNSt6vectorIPK4TypeSaIS2_EED2Ev.exit.i15:        ; preds = %49, %_ZNSt6vectorI12CVQualifiersSaIS0_EED2Ev.exit.i13
  %50 = getelementptr inbounds i8, ptr %32, i64 24
  %51 = load ptr, ptr %50, align 8
  %.not.i.i.i3.i16 = icmp eq ptr %51, null
  br i1 %.not.i.i.i3.i16, label %_ZN4TypeD2Ev.exit17, label %52

52:                                               ; preds = %_ZNSt6vectorIPK4TypeSaIS2_EED2Ev.exit.i15
  tail call void @_ZdlPv(ptr noundef nonnull %51) #21
  br label %_ZN4TypeD2Ev.exit17

_ZN4TypeD2Ev.exit17:                              ; preds = %_ZNSt6vectorIPK4TypeSaIS2_EED2Ev.exit.i15, %52
  tail call void @_ZdlPv(ptr noundef nonnull %32) #21
  %.pre39 = load ptr, ptr getelementptr inbounds (%"class.std::vector", ptr @_ZL13derived_types, i64 0, i32 0, i32 0, i32 0, i32 1), align 8
  br label %53

53:                                               ; preds = %.lr.ph33, %_ZN4TypeD2Ev.exit17
  %54 = phi ptr [ %31, %.lr.ph33 ], [ %.pre39, %_ZN4TypeD2Ev.exit17 ]
  %55 = getelementptr inbounds i8, ptr %.sroa.021.132, i64 8
  %.not27 = icmp eq ptr %55, %54
  br i1 %.not27, label %._crit_edge34, label %.lr.ph33, !llvm.loop !55

._crit_edge34:                                    ; preds = %53
  %.pre40 = load ptr, ptr @_ZL13derived_types, align 8
  %.not.i.i18 = icmp eq ptr %54, %.pre40
  br i1 %.not.i.i18, label %_ZNSt6vectorIP4TypeSaIS1_EE5clearEv.exit19, label %56

56:                                               ; preds = %._crit_edge34
  store ptr %.pre40, ptr getelementptr inbounds (%"class.std::vector", ptr @_ZL13derived_types, i64 0, i32 0, i32 0, i32 0, i32 1), align 8
  br label %_ZNSt6vectorIP4TypeSaIS1_EE5clearEv.exit19

_ZNSt6vectorIP4TypeSaIS1_EE5clearEv.exit19:       ; preds = %_ZNSt6vectorIP4TypeSaIS1_EE5clearEv.exit, %._crit_edge34, %56
  ret void
}